; Function Attrs: mustprogress uwtable
define hidden void @_ZN6google8protobuf8compiler4java17ClassNameResolver32GetFileDefaultImmutableClassNameB5cxx11EPKNS0_14FileDescriptorE(ptr noalias sret(%"class.std::__cxx11::basic_string") align 8 %agg.result, ptr nonnull readnone align 8 captures(none) %this, ptr noundef readonly captures(none) %file) local_unnamed_addr #3 align 2 personality ptr @__gxx_personality_v0 {
entry:
  %basename = alloca %"class.std::__cxx11::basic_string", align 8
  %ref.tmp = alloca %"class.std::__cxx11::basic_string", align 8
  %ref.tmp11 = alloca %"class.std::__cxx11::basic_string", align 8
  call void @_ZNSt7__cxx1112basic_stringIcSt11char_traitsIcESaIcEEC1Ev(ptr noundef nonnull align 8 dereferenceable(32) %basename) #18
  %name_.i = getelementptr inbounds nuw i8, ptr %file, i64 8
  %0 = load ptr, ptr %name_.i, align 8
  %call2 = call noundef i64 @_ZNKSt7__cxx1112basic_stringIcSt11char_traitsIcESaIcEE12find_last_ofEcm(ptr noundef nonnull align 8 dereferenceable(32) %0, i8 noundef signext 47, i64 noundef -1) #18
  %cmp = icmp eq i64 %call2, -1
  %1 = load ptr, ptr %name_.i, align 8
  br i1 %cmp, label %if.then, label %if.else

if.then:                                          ; preds = %entry
  %call6 = invoke noundef nonnull align 8 dereferenceable(32) ptr @_ZNSt7__cxx1112basic_stringIcSt11char_traitsIcESaIcEEaSERKS4_(ptr noundef nonnull align 8 dereferenceable(32) %basename, ptr noundef nonnull align 8 dereferenceable(32) %1)
          to label %if.end unwind label %lpad

lpad:                                             ; preds = %if.end, %if.else, %if.then
  %2 = landingpad { ptr, i32 }
          cleanup
  br label %ehcleanup

if.else:                                          ; preds = %entry
  %add = add nuw i64 %call2, 1
  invoke void @_ZNKSt7__cxx1112basic_stringIcSt11char_traitsIcESaIcEE6substrEmm(ptr nonnull sret(%"class.std::__cxx11::basic_string") align 8 %ref.tmp, ptr noundef nonnull align 8 dereferenceable(32) %1, i64 noundef %add, i64 noundef -1)
          to label %invoke.cont9 unwind label %lpad

invoke.cont9:                                     ; preds = %if.else
  %call10 = call noundef nonnull align 8 dereferenceable(32) ptr @_ZNSt7__cxx1112basic_stringIcSt11char_traitsIcESaIcEEaSEOS4_(ptr noundef nonnull align 8 dereferenceable(32) %basename, ptr noundef nonnull align 8 dereferenceable(32) %ref.tmp) #18
  call void @_ZNSt7__cxx1112basic_stringIcSt11char_traitsIcESaIcEED1Ev(ptr noundef nonnull align 8 dereferenceable(32) %ref.tmp) #18
  br label %if.end

if.end:                                           ; preds = %if.then, %invoke.cont9
  %call13 = call { i64, ptr } @_ZNKSt7__cxx1112basic_stringIcSt11char_traitsIcESaIcEEcvSt17basic_string_viewIcS2_EEv(ptr noundef nonnull align 8 dereferenceable(32) %basename) #18
  %3 = extractvalue { i64, ptr } %call13, 0
  %4 = extractvalue { i64, ptr } %call13, 1
  invoke void @_ZN6google8protobuf8compiler10StripProtoB5cxx11ESt17basic_string_viewIcSt11char_traitsIcEE(ptr nonnull sret(%"class.std::__cxx11::basic_string") align 8 %ref.tmp11, i64 %3, ptr %4)
          to label %invoke.cont14 unwind label %lpad

invoke.cont14:                                    ; preds = %if.end
  %call15 = call { i64, ptr } @_ZNKSt7__cxx1112basic_stringIcSt11char_traitsIcESaIcEEcvSt17basic_string_viewIcS2_EEv(ptr noundef nonnull align 8 dereferenceable(32) %ref.tmp11) #18
  %5 = extractvalue { i64, ptr } %call15, 0
  %6 = extractvalue { i64, ptr } %call15, 1
  invoke void @_ZN6google8protobuf8compiler4java22UnderscoresToCamelCaseB5cxx11ESt17basic_string_viewIcSt11char_traitsIcEEb(ptr sret(%"class.std::__cxx11::basic_string") align 8 %agg.result, i64 %5, ptr %6, i1 noundef zeroext true)
          to label %invoke.cont17 unwind label %lpad16

invoke.cont17:                                    ; preds = %invoke.cont14
  call void @_ZNSt7__cxx1112basic_stringIcSt11char_traitsIcESaIcEED1Ev(ptr noundef nonnull align 8 dereferenceable(32) %ref.tmp11) #18
  call void @_ZNSt7__cxx1112basic_stringIcSt11char_traitsIcESaIcEED1Ev(ptr noundef nonnull align 8 dereferenceable(32) %basename) #18
  ret void

lpad16:                                           ; preds = %invoke.cont14
  %7 = landingpad { ptr, i32 }
          cleanup
  call void @_ZNSt7__cxx1112basic_stringIcSt11char_traitsIcESaIcEED1Ev(ptr noundef nonnull align 8 dereferenceable(32) %ref.tmp11) #18
  br label %ehcleanup

ehcleanup:                                        ; preds = %lpad16, %lpad
  %.pn = phi { ptr, i32 } [ %7, %lpad16 ], [ %2, %lpad ]
  call void @_ZNSt7__cxx1112basic_stringIcSt11char_traitsIcESaIcEED1Ev(ptr noundef nonnull align 8 dereferenceable(32) %basename) #18
  resume { ptr, i32 } %.pn
}